; ModuleID = 'source-C-CXX/61/1506.c'
source_filename = "source-C-CXX/61/1506.c"
target datalayout = "e-m:e-p270:32:32-p271:32:32-p272:64:64-i64:64-f80:128-n8:16:32:64-S128"
target triple = "x86_64-pc-linux-gnu"

; Function Attrs: nounwind sspstrong uwtable
define dso_local void @main() local_unnamed_addr #0 {
  %1 = alloca [10000 x i8], align 16
  %2 = getelementptr inbounds [10000 x i8], [10000 x i8]* %1, i64 0, i64 0
  call void @llvm.lifetime.start.p0i8(i64 10000, i8* nonnull %2) #4
  %3 = call i32 (i8*, ...) bitcast (i32 (...)* @gets to i32 (i8*, ...)*)(i8* nonnull %2) #4
  br label %4

4:                                                ; preds = %22, %0
  %5 = phi i32 [ 0, %0 ], [ %24, %22 ]
  %6 = sext i32 %5 to i64
  %7 = getelementptr inbounds [10000 x i8], [10000 x i8]* %1, i64 0, i64 %6
  %8 = load i8, i8* %7, align 1, !tbaa !5
  switch i8 %8, label %17 [
    i8 0, label %25
    i8 32, label %9
  ]

9:                                                ; preds = %4
  %10 = call i32 @putchar(i32 32)
  br label %11

11:                                               ; preds = %11, %9
  %12 = phi i64 [ %13, %11 ], [ %6, %9 ]
  %13 = add nsw i64 %12, 1
  %14 = getelementptr inbounds [10000 x i8], [10000 x i8]* %1, i64 0, i64 %13
  %15 = load i8, i8* %14, align 1, !tbaa !5
  %16 = icmp eq i8 %15, 32
  br i1 %16, label %11, label %20, !llvm.loop !8

17:                                               ; preds = %4
  %18 = sext i8 %8 to i32
  %19 = call i32 @putchar(i32 %18)
  br label %22

20:                                               ; preds = %11
  %21 = trunc i64 %12 to i32
  br label %22

22:                                               ; preds = %20, %17
  %23 = phi i32 [ %5, %17 ], [ %21, %20 ]
  %24 = add nsw i32 %23, 1
  br label %4, !llvm.loop !10

25:                                               ; preds = %4
  call void @llvm.lifetime.end.p0i8(i64 10000, i8* nonnull %2) #4
  ret void
}

; Function Attrs: argmemonly mustprogress nofree nosync nounwind willreturn
declare void @llvm.lifetime.start.p0i8(i64 immarg, i8* nocapture) #1

declare i32 @gets(...) local_unnamed_addr #2

; Function Attrs: argmemonly mustprogress nofree nosync nounwind willreturn
declare void @llvm.lifetime.end.p0i8(i64 immarg, i8* nocapture) #1

; Function Attrs: nofree nounwind
declare noundef i32 @putchar(i32 noundef) local_unnamed_addr #3


!llvm.module.flags = !{!0, !1, !2, !3}
!llvm.ident = !{!4}

!0 = !{i32 1, !"wchar_size", i32 4}
!1 = !{i32 7, !"PIC Level", i32 2}
!2 = !{i32 7, !"PIE Level", i32 2}
!3 = !{i32 7, !"uwtable", i32 1}
!4 = !{!"clang version 13.0.0"}
!5 = !{!6, !6, i64 0}
!6 = !{!"omnipotent char", !7, i64 0}
!7 = !{!"Simple C/C++ TBAA"}
!8 = distinct !{!8, !9}
!9 = !{!"llvm.loop.mustprogress"}
!10 = distinct !{!10, !9}
